target datalayout = "e-m:e-p270:32:32-p271:32:32-p272:64:64-i64:64-i128:128-f80:128-n8:16:32:64-S128"
target triple = "x86_64-unknown-linux-gnu"

%"struct.icu_75::FormattedStringBuilder::Field" = type { i8 }
%"class.icu_75::MaybeStackArray" = type <{ ptr, i32, i8, [40 x i8], [3 x i8] }>
%"class.icu_75::number::impl::MutablePatternModifier" = type { %"class.icu_75::number::impl::MicroPropsGenerator", %"class.icu_75::number::impl::Modifier", %"class.icu_75::number::impl::SymbolProvider", i8, ptr, %"struct.icu_75::FormattedStringBuilder::Field", i32, i8, i8, ptr, i32, %"class.icu_75::number::impl::CurrencySymbols", ptr, i32, i32, ptr, %"class.icu_75::UnicodeString" }
%"class.icu_75::number::impl::MicroPropsGenerator" = type { ptr }
%"class.icu_75::number::impl::Modifier" = type { ptr }
%"class.icu_75::number::impl::SymbolProvider" = type { ptr }
%"class.icu_75::number::impl::CurrencySymbols" = type { [8 x i8], %"class.icu_75::CurrencyUnit", %"class.icu_75::CharString", %"class.icu_75::UnicodeString", %"class.icu_75::UnicodeString" }
%"class.icu_75::CurrencyUnit" = type { %"class.icu_75::MeasureUnit.base", [4 x i16], [4 x i8] }
%"class.icu_75::MeasureUnit.base" = type <{ %"class.icu_75::UObject", ptr, i16, i8 }>
%"class.icu_75::UObject" = type { ptr }
%"class.icu_75::CharString" = type { %"class.icu_75::MaybeStackArray", i32, [4 x i8] }
%"class.icu_75::UnicodeString" = type { %"class.icu_75::Replaceable", %"union.icu_75::UnicodeString::StackBufferOrFields" }
%"class.icu_75::Replaceable" = type { %"class.icu_75::UObject" }
%"union.icu_75::UnicodeString::StackBufferOrFields" = type { %struct.anon.0, [32 x i8] }
%struct.anon.0 = type { i16, i32, i32, ptr }
%"class.icu_75::number::impl::AdoptingSignumModifierStore" = type { ptr, [4 x ptr] }

@_ZTVN6icu_756number4impl27AdoptingSignumModifierStoreE = external unnamed_addr constant { [4 x ptr] }, align 8

; Function Attrs: mustprogress nounwind uwtable
define linkonce_odr void @_ZN6icu_756number4impl27AdoptingSignumModifierStore13adoptModifierENS1_6SignumEPKNS1_8ModifierE(ptr noundef nonnull align 8 dereferenceable(40) %this, i32 noundef %signum, ptr noundef %mod) #0 comdat align 2 {
entry:
  %this.addr = alloca ptr, align 8
  %signum.addr = alloca i32, align 4
  %mod.addr = alloca ptr, align 8
  store ptr %this, ptr %this.addr, align 8
  store i32 %signum, ptr %signum.addr, align 4
  store ptr %mod, ptr %mod.addr, align 8
  %this1 = load ptr, ptr %this.addr, align 8
  %0 = load ptr, ptr %mod.addr, align 8
  %mods = getelementptr inbounds %"class.icu_75::number::impl::AdoptingSignumModifierStore", ptr %this1, i32 0, i32 1
  %1 = load i32, ptr %signum.addr, align 4
  %idxprom = zext i32 %1 to i64
  %arrayidx = getelementptr inbounds [4 x ptr], ptr %mods, i64 0, i64 %idxprom
  store ptr %0, ptr %arrayidx, align 8
  ret void
}

; Function Attrs: mustprogress nounwind uwtable
define void @_ZN6icu_756number4impl22MutablePatternModifier19setNumberPropertiesENS1_6SignumENS_14StandardPlural4FormE(ptr noundef nonnull align 8 dereferenceable(392) %this, i32 noundef %signum, i32 noundef %plural) #0 align 2 {
entry:
  %this.addr = alloca ptr, align 8
  %signum.addr = alloca i32, align 4
  %plural.addr = alloca i32, align 4
  store ptr %this, ptr %this.addr, align 8
  store i32 %signum, ptr %signum.addr, align 4
  store i32 %plural, ptr %plural.addr, align 4
  %this1 = load ptr, ptr %this.addr, align 8
  %0 = load i32, ptr %signum.addr, align 4
  %fSignum = getelementptr inbounds %"class.icu_75::number::impl::MutablePatternModifier", ptr %this1, i32 0, i32 13
  store i32 %0, ptr %fSignum, align 8
  %1 = load i32, ptr %plural.addr, align 4
  %fPlural = getelementptr inbounds %"class.icu_75::number::impl::MutablePatternModifier", ptr %this1, i32 0, i32 14
  store i32 %1, ptr %fPlural, align 4
  ret void
}

; Function Attrs: mustprogress nounwind uwtable
define linkonce_odr void @_ZN6icu_756number4impl27AdoptingSignumModifierStoreC2Ev(ptr noundef nonnull align 8 dereferenceable(40) %this) unnamed_addr #0 comdat align 2 {
entry:
  %this.addr = alloca ptr, align 8
  store ptr %this, ptr %this.addr, align 8
  %this1 = load ptr, ptr %this.addr, align 8
  store ptr getelementptr inbounds ({ [4 x ptr] }, ptr @_ZTVN6icu_756number4impl27AdoptingSignumModifierStoreE, i32 0, i32 0, i32 2), ptr %this1, align 8
  %mods = getelementptr inbounds %"class.icu_75::number::impl::AdoptingSignumModifierStore", ptr %this1, i32 0, i32 1
  %arrayinit.begin = getelementptr inbounds [4 x ptr], ptr %mods, i64 0, i64 0
  %arrayinit.end = getelementptr inbounds ptr, ptr %arrayinit.begin, i64 4
  br label %arrayinit.body

arrayinit.body:                                   ; preds = %arrayinit.body, %entry
  %arrayinit.cur = phi ptr [ %arrayinit.begin, %entry ], [ %arrayinit.next, %arrayinit.body ]
  store ptr null, ptr %arrayinit.cur, align 8
  %arrayinit.next = getelementptr inbounds ptr, ptr %arrayinit.cur, i64 1
  %arrayinit.done = icmp eq ptr %arrayinit.next, %arrayinit.end
  br i1 %arrayinit.done, label %arrayinit.end2, label %arrayinit.body

arrayinit.end2:                                   ; preds = %arrayinit.body
  ret void
}

; Function Attrs: mustprogress uwtable
define void @_ZN6icu_756number4impl22MutablePatternModifier24createImmutableForPluralENS_14StandardPlural4FormER10UErrorCode(ptr noalias sret(%"class.icu_75::number::impl::AdoptingSignumModifierStore") align 8 %agg.result, ptr noundef nonnull align 8 dereferenceable(392) %this, i32 noundef %plural, ptr noundef nonnull align 4 dereferenceable(4) %status) #1 align 2 personality ptr @__gxx_personality_v0 {
entry:
  %result.ptr = alloca ptr, align 8
  %this.addr = alloca ptr, align 8
  %plural.addr = alloca i32, align 4
  %status.addr = alloca ptr, align 8
  %nrvo = alloca i1, align 1
  %exn.slot = alloca ptr, align 8
  %ehselector.slot = alloca i32, align 4
  store ptr %agg.result, ptr %result.ptr, align 8
  store ptr %this, ptr %this.addr, align 8
  store i32 %plural, ptr %plural.addr, align 4
  store ptr %status, ptr %status.addr, align 8
  %this1 = load ptr, ptr %this.addr, align 8
  store i1 false, ptr %nrvo, align 1
  call void @_ZN6icu_756number4impl27AdoptingSignumModifierStoreC2Ev(ptr noundef nonnull align 8 dereferenceable(40) %agg.result) #12
  %0 = load i32, ptr %plural.addr, align 4
  call void @_ZN6icu_756number4impl22MutablePatternModifier19setNumberPropertiesENS1_6SignumENS_14StandardPlural4FormE(ptr noundef nonnull align 8 dereferenceable(392) %this1, i32 noundef 3, i32 noundef %0)
  %1 = load ptr, ptr %status.addr, align 8
  %call = invoke noundef ptr @_ZN6icu_756number4impl22MutablePatternModifier22createConstantModifierER10UErrorCode(ptr noundef nonnull align 8 dereferenceable(392) %this1, ptr noundef nonnull align 4 dereferenceable(4) %1)
          to label %invoke.cont unwind label %lpad

invoke.cont:                                      ; preds = %entry
  invoke void @_ZN6icu_756number4impl27AdoptingSignumModifierStore13adoptModifierENS1_6SignumEPKNS1_8ModifierE(ptr noundef nonnull align 8 dereferenceable(40) %agg.result, i32 noundef 3, ptr noundef %call)
          to label %invoke.cont2 unwind label %lpad

invoke.cont2:                                     ; preds = %invoke.cont
  %2 = load i32, ptr %plural.addr, align 4
  call void @_ZN6icu_756number4impl22MutablePatternModifier19setNumberPropertiesENS1_6SignumENS_14StandardPlural4FormE(ptr noundef nonnull align 8 dereferenceable(392) %this1, i32 noundef 1, i32 noundef %2)
  %3 = load ptr, ptr %status.addr, align 8
  %call4 = invoke noundef ptr @_ZN6icu_756number4impl22MutablePatternModifier22createConstantModifierER10UErrorCode(ptr noundef nonnull align 8 dereferenceable(392) %this1, ptr noundef nonnull align 4 dereferenceable(4) %3)
          to label %invoke.cont3 unwind label %lpad

invoke.cont3:                                     ; preds = %invoke.cont2
  invoke void @_ZN6icu_756number4impl27AdoptingSignumModifierStore13adoptModifierENS1_6SignumEPKNS1_8ModifierE(ptr noundef nonnull align 8 dereferenceable(40) %agg.result, i32 noundef 1, ptr noundef %call4)
          to label %invoke.cont5 unwind label %lpad

invoke.cont5:                                     ; preds = %invoke.cont3
  %4 = load i32, ptr %plural.addr, align 4
  call void @_ZN6icu_756number4impl22MutablePatternModifier19setNumberPropertiesENS1_6SignumENS_14StandardPlural4FormE(ptr noundef nonnull align 8 dereferenceable(392) %this1, i32 noundef 2, i32 noundef %4)
  %5 = load ptr, ptr %status.addr, align 8
  %call7 = invoke noundef ptr @_ZN6icu_756number4impl22MutablePatternModifier22createConstantModifierER10UErrorCode(ptr noundef nonnull align 8 dereferenceable(392) %this1, ptr noundef nonnull align 4 dereferenceable(4) %5)
          to label %invoke.cont6 unwind label %lpad

invoke.cont6:                                     ; preds = %invoke.cont5
  invoke void @_ZN6icu_756number4impl27AdoptingSignumModifierStore13adoptModifierENS1_6SignumEPKNS1_8ModifierE(ptr noundef nonnull align 8 dereferenceable(40) %agg.result, i32 noundef 2, ptr noundef %call7)
          to label %invoke.cont8 unwind label %lpad

invoke.cont8:                                     ; preds = %invoke.cont6
  %6 = load i32, ptr %plural.addr, align 4
  call void @_ZN6icu_756number4impl22MutablePatternModifier19setNumberPropertiesENS1_6SignumENS_14StandardPlural4FormE(ptr noundef nonnull align 8 dereferenceable(392) %this1, i32 noundef 0, i32 noundef %6)
  %7 = load ptr, ptr %status.addr, align 8
  %call10 = invoke noundef ptr @_ZN6icu_756number4impl22MutablePatternModifier22createConstantModifierER10UErrorCode(ptr noundef nonnull align 8 dereferenceable(392) %this1, ptr noundef nonnull align 4 dereferenceable(4) %7)
          to label %invoke.cont9 unwind label %lpad

invoke.cont9:                                     ; preds = %invoke.cont8
  invoke void @_ZN6icu_756number4impl27AdoptingSignumModifierStore13adoptModifierENS1_6SignumEPKNS1_8ModifierE(ptr noundef nonnull align 8 dereferenceable(40) %agg.result, i32 noundef 0, ptr noundef %call10)
          to label %invoke.cont11 unwind label %lpad

invoke.cont11:                                    ; preds = %invoke.cont9
  store i1 true, ptr %nrvo, align 1
  %nrvo.val = load i1, ptr %nrvo, align 1
  br i1 %nrvo.val, label %nrvo.skipdtor, label %nrvo.unused

lpad:                                             ; preds = %invoke.cont9, %invoke.cont8, %invoke.cont6, %invoke.cont5, %invoke.cont3, %invoke.cont2, %invoke.cont, %entry
  %8 = landingpad { ptr, i32 }
          cleanup
  %9 = extractvalue { ptr, i32 } %8, 0
  store ptr %9, ptr %exn.slot, align 8
  %10 = extractvalue { ptr, i32 } %8, 1
  store i32 %10, ptr %ehselector.slot, align 4
  call void @_ZN6icu_756number4impl27AdoptingSignumModifierStoreD1Ev(ptr noundef nonnull align 8 dereferenceable(40) %agg.result) #12
  br label %eh.resume

nrvo.unused:                                      ; preds = %invoke.cont11
  call void @_ZN6icu_756number4impl27AdoptingSignumModifierStoreD1Ev(ptr noundef nonnull align 8 dereferenceable(40) %agg.result) #12
  br label %nrvo.skipdtor

nrvo.skipdtor:                                    ; preds = %nrvo.unused, %invoke.cont11
  ret void

eh.resume:                                        ; preds = %lpad
  %exn = load ptr, ptr %exn.slot, align 8
  %sel = load i32, ptr %ehselector.slot, align 4
  %lpad.val = insertvalue { ptr, i32 } poison, ptr %exn, 0
  %lpad.val12 = insertvalue { ptr, i32 } %lpad.val, i32 %sel, 1
  resume { ptr, i32 } %lpad.val12
}