; Function Attrs: mustprogress uwtable
define void @_ZN6icu_756number4impl22MutablePatternModifier24createImmutableForPluralENS_14StandardPlural4FormER10UErrorCode(ptr noalias sret(%"class.icu_75::number::impl::AdoptingSignumModifierStore") align 8 %agg.result, ptr noundef nonnull align 8 dereferenceable(392) %this, i32 noundef %plural, ptr noundef nonnull align 4 dereferenceable(4) %status) local_unnamed_addr #1 align 2 personality ptr @__gxx_personality_v0 {
entry:
  store ptr getelementptr inbounds ({ [4 x ptr] }, ptr @_ZTVN6icu_756number4impl27AdoptingSignumModifierStoreE, i64 0, i32 0, i64 2), ptr %agg.result, align 8
  %scevgep.i = getelementptr inbounds i8, ptr %agg.result, i64 8
  tail call void @llvm.memset.p0.i64(ptr noundef nonnull align 8 dereferenceable(32) %scevgep.i, i8 0, i64 32, i1 false)
  %fSignum.i = getelementptr inbounds i8, ptr %this, i64 312
  store i32 3, ptr %fSignum.i, align 8
  %fPlural.i = getelementptr inbounds i8, ptr %this, i64 316
  store i32 %plural, ptr %fPlural.i, align 4
  %call = invoke noundef ptr @_ZN6icu_756number4impl22MutablePatternModifier22createConstantModifierER10UErrorCode(ptr noundef nonnull align 8 dereferenceable(392) %this, ptr noundef nonnull align 4 dereferenceable(4) %status)
          to label %invoke.cont unwind label %lpad

invoke.cont:                                      ; preds = %entry
  %arrayidx.i = getelementptr inbounds i8, ptr %agg.result, i64 32
  store ptr %call, ptr %arrayidx.i, align 8
  store i32 1, ptr %fSignum.i, align 8
  store i32 %plural, ptr %fPlural.i, align 4
  %call4 = invoke noundef ptr @_ZN6icu_756number4impl22MutablePatternModifier22createConstantModifierER10UErrorCode(ptr noundef nonnull align 8 dereferenceable(392) %this, ptr noundef nonnull align 4 dereferenceable(4) %status)
          to label %invoke.cont3 unwind label %lpad

invoke.cont3:                                     ; preds = %invoke.cont
  %arrayidx.i10 = getelementptr inbounds i8, ptr %agg.result, i64 16
  store ptr %call4, ptr %arrayidx.i10, align 8
  store i32 2, ptr %fSignum.i, align 8
  store i32 %plural, ptr %fPlural.i, align 4
  %call7 = invoke noundef ptr @_ZN6icu_756number4impl22MutablePatternModifier22createConstantModifierER10UErrorCode(ptr noundef nonnull align 8 dereferenceable(392) %this, ptr noundef nonnull align 4 dereferenceable(4) %status)
          to label %invoke.cont6 unwind label %lpad

invoke.cont6:                                     ; preds = %invoke.cont3
  %arrayidx.i14 = getelementptr inbounds i8, ptr %agg.result, i64 24
  store ptr %call7, ptr %arrayidx.i14, align 8
  store i32 0, ptr %fSignum.i, align 8
  store i32 %plural, ptr %fPlural.i, align 4
  %call10 = invoke noundef ptr @_ZN6icu_756number4impl22MutablePatternModifier22createConstantModifierER10UErrorCode(ptr noundef nonnull align 8 dereferenceable(392) %this, ptr noundef nonnull align 4 dereferenceable(4) %status)
          to label %invoke.cont9 unwind label %lpad

invoke.cont9:                                     ; preds = %invoke.cont6
  store ptr %call10, ptr %scevgep.i, align 8
  ret void

lpad:                                             ; preds = %invoke.cont6, %invoke.cont3, %invoke.cont, %entry
  %0 = landingpad { ptr, i32 }
          cleanup
  tail call void @_ZN6icu_756number4impl27AdoptingSignumModifierStoreD1Ev(ptr noundef nonnull align 8 dereferenceable(40) %agg.result) #21
  resume { ptr, i32 } %0
}